; Function Attrs: nounwind uwtable
define internal { i64, i64 } @js_std_file_putByte(ptr noundef %0, i64 %1, i64 %2, i32 %3, ptr nocapture noundef readonly %4) #0 {
  %6 = alloca i32, align 4
  %7 = load i32, ptr @js_std_file_class_id, align 4
  %8 = tail call ptr @JS_GetOpaque2(ptr noundef %0, i64 %1, i64 %2, i32 noundef %7) #29
  %.not.i = icmp eq ptr %8, null
  br i1 %.not.i, label %js_std_file_get.exit.thread, label %9

9:                                                ; preds = %5
  %10 = load ptr, ptr %8, align 8
  %.not9.i = icmp eq ptr %10, null
  br i1 %.not9.i, label %11, label %js_std_file_get.exit

11:                                               ; preds = %9
  %12 = tail call { i64, i64 } (ptr, ptr, ...) @JS_ThrowTypeError(ptr noundef %0, ptr noundef nonnull @.str.41) #29
  br label %js_std_file_get.exit.thread

js_std_file_get.exit:                             ; preds = %9
  %13 = load i64, ptr %4, align 8
  %14 = getelementptr inbounds i8, ptr %4, i64 8
  %15 = load i64, ptr %14, align 8
  %16 = call i32 @JS_ToInt32(ptr noundef %0, ptr noundef nonnull %6, i64 %13, i64 %15) #29
  %.not13 = icmp eq i32 %16, 0
  br i1 %.not13, label %17, label %js_std_file_get.exit.thread

17:                                               ; preds = %js_std_file_get.exit
  %18 = load i32, ptr %6, align 4
  %19 = call i32 @fputc(i32 noundef %18, ptr noundef nonnull %10)
  %20 = zext i32 %19 to i64
  br label %js_std_file_get.exit.thread

js_std_file_get.exit.thread:                      ; preds = %5, %11, %js_std_file_get.exit, %17
  %.sroa.06.0 = phi i64 [ %20, %17 ], [ 0, %js_std_file_get.exit ], [ 0, %11 ], [ 0, %5 ]
  %.sroa.4.sroa.2.0 = phi i64 [ 0, %17 ], [ 6, %js_std_file_get.exit ], [ 6, %11 ], [ 6, %5 ]
  %.fca.0.insert = insertvalue { i64, i64 } poison, i64 %.sroa.06.0, 0
  %.fca.1.insert = insertvalue { i64, i64 } %.fca.0.insert, i64 %.sroa.4.sroa.2.0, 1
  ret { i64, i64 } %.fca.1.insert
}